
test.elf:     file format elf32-avr

Sections:
Idx Name          Size      VMA       LMA       File off  Algn
  0 .data         0000001c  00800100  00000c5a  00000cce  2**0
                  CONTENTS, ALLOC, LOAD, DATA
  1 .text         00000c5a  00000000  00000000  00000074  2**1
                  CONTENTS, ALLOC, LOAD, READONLY, CODE
  2 .bss          0000000c  0080011c  00000c76  00000cea  2**0
                  ALLOC
  3 .stab         000026f4  00000000  00000000  00000cec  2**2
                  CONTENTS, READONLY, DEBUGGING
  4 .stabstr      0000249e  00000000  00000000  000033e0  2**0
                  CONTENTS, READONLY, DEBUGGING
  5 .debug_aranges 00000020  00000000  00000000  0000587e  2**0
                  CONTENTS, READONLY, DEBUGGING
  6 .debug_pubnames 0000001b  00000000  00000000  0000589e  2**0
                  CONTENTS, READONLY, DEBUGGING
  7 .debug_info   00000078  00000000  00000000  000058b9  2**0
                  CONTENTS, READONLY, DEBUGGING
  8 .debug_abbrev 00000048  00000000  00000000  00005931  2**0
                  CONTENTS, READONLY, DEBUGGING
  9 .debug_line   00000096  00000000  00000000  00005979  2**0
                  CONTENTS, READONLY, DEBUGGING
 10 .debug_frame  00000020  00000000  00000000  00005a10  2**2
                  CONTENTS, READONLY, DEBUGGING
 11 .debug_str    00000092  00000000  00000000  00005a30  2**0
                  CONTENTS, READONLY, DEBUGGING
Disassembly of section .text:

00000000 <__vectors>:
   0:	0c 94 40 00 	jmp	0x80	; 0x80 <__ctors_end>
   4:	0c 94 5d 00 	jmp	0xba	; 0xba <__bad_interrupt>
   8:	0c 94 5d 00 	jmp	0xba	; 0xba <__bad_interrupt>
   c:	0c 94 5d 00 	jmp	0xba	; 0xba <__bad_interrupt>
  10:	0c 94 5d 00 	jmp	0xba	; 0xba <__bad_interrupt>
  14:	0c 94 5d 00 	jmp	0xba	; 0xba <__bad_interrupt>
  18:	0c 94 5d 00 	jmp	0xba	; 0xba <__bad_interrupt>
  1c:	0c 94 5d 00 	jmp	0xba	; 0xba <__bad_interrupt>
  20:	0c 94 5d 00 	jmp	0xba	; 0xba <__bad_interrupt>
  24:	0c 94 5d 00 	jmp	0xba	; 0xba <__bad_interrupt>
  28:	0c 94 5d 00 	jmp	0xba	; 0xba <__bad_interrupt>
  2c:	0c 94 5d 00 	jmp	0xba	; 0xba <__bad_interrupt>
  30:	0c 94 5d 00 	jmp	0xba	; 0xba <__bad_interrupt>
  34:	0c 94 2b 04 	jmp	0x856	; 0x856 <__vector_13>
  38:	0c 94 5d 00 	jmp	0xba	; 0xba <__bad_interrupt>
  3c:	0c 94 5d 00 	jmp	0xba	; 0xba <__bad_interrupt>
  40:	0c 94 5d 00 	jmp	0xba	; 0xba <__bad_interrupt>
  44:	0c 94 5d 00 	jmp	0xba	; 0xba <__bad_interrupt>
  48:	0c 94 5d 00 	jmp	0xba	; 0xba <__bad_interrupt>
  4c:	0c 94 5d 00 	jmp	0xba	; 0xba <__bad_interrupt>
  50:	0c 94 5d 00 	jmp	0xba	; 0xba <__bad_interrupt>
  54:	0c 94 5d 00 	jmp	0xba	; 0xba <__bad_interrupt>
  58:	0c 94 5d 00 	jmp	0xba	; 0xba <__bad_interrupt>
  5c:	0c 94 5d 00 	jmp	0xba	; 0xba <__bad_interrupt>
  60:	0c 94 5d 00 	jmp	0xba	; 0xba <__bad_interrupt>
  64:	0c 94 5d 00 	jmp	0xba	; 0xba <__bad_interrupt>
  68:	84 01       	movw	r16, r8
  6a:	87 01       	movw	r16, r14
  6c:	8a 01       	movw	r16, r20
  6e:	8d 01       	movw	r16, r26
  70:	90 01       	movw	r18, r0
  72:	93 01       	movw	r18, r6
  74:	96 01       	movw	r18, r12
  76:	99 01       	movw	r18, r18
  78:	9c 01       	movw	r18, r24
  7a:	9f 01       	movw	r18, r30
  7c:	a2 01       	movw	r20, r4
  7e:	7e 01       	movw	r14, r28

00000080 <__ctors_end>:
  80:	11 24       	eor	r1, r1
  82:	1f be       	out	0x3f, r1	; 63
  84:	cf ef       	ldi	r28, 0xFF	; 255
  86:	d4 e0       	ldi	r29, 0x04	; 4
  88:	de bf       	out	0x3e, r29	; 62
  8a:	cd bf       	out	0x3d, r28	; 61

0000008c <__do_copy_data>:
  8c:	11 e0       	ldi	r17, 0x01	; 1
  8e:	a0 e0       	ldi	r26, 0x00	; 0
  90:	b1 e0       	ldi	r27, 0x01	; 1
  92:	ea e5       	ldi	r30, 0x5A	; 90
  94:	fc e0       	ldi	r31, 0x0C	; 12
  96:	02 c0       	rjmp	.+4      	; 0x9c <.do_copy_data_start>

00000098 <.do_copy_data_loop>:
  98:	05 90       	lpm	r0, Z+
  9a:	0d 92       	st	X+, r0

0000009c <.do_copy_data_start>:
  9c:	ac 31       	cpi	r26, 0x1C	; 28
  9e:	b1 07       	cpc	r27, r17
  a0:	d9 f7       	brne	.-10     	; 0x98 <.do_copy_data_loop>

000000a2 <__do_clear_bss>:
  a2:	11 e0       	ldi	r17, 0x01	; 1
  a4:	ac e1       	ldi	r26, 0x1C	; 28
  a6:	b1 e0       	ldi	r27, 0x01	; 1
  a8:	01 c0       	rjmp	.+2      	; 0xac <.do_clear_bss_start>

000000aa <.do_clear_bss_loop>:
  aa:	1d 92       	st	X+, r1

000000ac <.do_clear_bss_start>:
  ac:	a8 32       	cpi	r26, 0x28	; 40
  ae:	b1 07       	cpc	r27, r17
  b0:	e1 f7       	brne	.-8      	; 0xaa <.do_clear_bss_loop>
  b2:	0e 94 5f 00 	call	0xbe	; 0xbe <main>
  b6:	0c 94 2b 06 	jmp	0xc56	; 0xc56 <_exit>

000000ba <__bad_interrupt>:
  ba:	0c 94 00 00 	jmp	0	; 0x0 <__heap_end>

000000be <main>:
#include <pololu/orangutan.h>

int main()
{
  be:	80 e0       	ldi	r24, 0x00	; 0
  c0:	91 e0       	ldi	r25, 0x01	; 1
  c2:	0e 94 44 05 	call	0xa88	; 0xa88 <print>
	print("Hello!");

	play("L16 ceg>c");
  c6:	87 e0       	ldi	r24, 0x07	; 7
  c8:	91 e0       	ldi	r25, 0x01	; 1
  ca:	0e 94 28 04 	call	0x850	; 0x850 <play>

	while(1)
	{
		red_led(0);
  ce:	80 e0       	ldi	r24, 0x00	; 0
  d0:	0e 94 51 05 	call	0xaa2	; 0xaa2 <red_led>
		green_led(1);
  d4:	81 e0       	ldi	r24, 0x01	; 1
  d6:	0e 94 5e 05 	call	0xabc	; 0xabc <green_led>

		delay_ms(100);
  da:	84 e6       	ldi	r24, 0x64	; 100
  dc:	90 e0       	ldi	r25, 0x00	; 0
  de:	0e 94 6f 05 	call	0xade	; 0xade <delay_ms>

		red_led(1);
  e2:	81 e0       	ldi	r24, 0x01	; 1
  e4:	0e 94 51 05 	call	0xaa2	; 0xaa2 <red_led>
		green_led(0);
  e8:	80 e0       	ldi	r24, 0x00	; 0
  ea:	0e 94 5e 05 	call	0xabc	; 0xabc <green_led>
		
		delay_ms(100);
  ee:	84 e6       	ldi	r24, 0x64	; 100
  f0:	90 e0       	ldi	r25, 0x00	; 0
  f2:	0e 94 6f 05 	call	0xade	; 0xade <delay_ms>
  f6:	eb cf       	rjmp	.-42     	; 0xce <main+0x10>

000000f8 <_ZN15OrangutanBuzzer5init2Ev>:
  f8:	10 92 6f 00 	sts	0x006F, r1
  fc:	22 98       	cbi	0x04, 2	; 4
  fe:	83 e2       	ldi	r24, 0x23	; 35
 100:	80 93 80 00 	sts	0x0080, r24
 104:	89 e1       	ldi	r24, 0x19	; 25
 106:	80 93 81 00 	sts	0x0081, r24
 10a:	10 92 82 00 	sts	0x0082, r1
 10e:	80 e2       	ldi	r24, 0x20	; 32
 110:	9e e4       	ldi	r25, 0x4E	; 78
 112:	90 93 89 00 	sts	0x0089, r25
 116:	80 93 88 00 	sts	0x0088, r24
 11a:	10 92 8b 00 	sts	0x008B, r1
 11e:	10 92 8a 00 	sts	0x008A, r1
 122:	08 95       	ret

00000124 <_ZN15OrangutanBuzzer4initEv>:
 124:	80 91 1c 01 	lds	r24, 0x011C
 128:	88 23       	and	r24, r24
 12a:	29 f4       	brne	.+10     	; 0x136 <_ZN15OrangutanBuzzer4initEv+0x12>
 12c:	81 e0       	ldi	r24, 0x01	; 1
 12e:	80 93 1c 01 	sts	0x011C, r24
 132:	0e 94 7c 00 	call	0xf8	; 0xf8 <_ZN15OrangutanBuzzer5init2Ev>
 136:	08 95       	ret

00000138 <_ZN15OrangutanBuzzer13playFrequencyEjjh>:
 138:	a0 e0       	ldi	r26, 0x00	; 0
 13a:	b0 e0       	ldi	r27, 0x00	; 0
 13c:	e2 ea       	ldi	r30, 0xA2	; 162
 13e:	f0 e0       	ldi	r31, 0x00	; 0
 140:	0c 94 f6 05 	jmp	0xbec	; 0xbec <__prologue_saves__+0x10>
 144:	8c 01       	movw	r16, r24
 146:	5b 01       	movw	r10, r22
 148:	c4 2e       	mov	r12, r20
 14a:	0e 94 92 00 	call	0x124	; 0x124 <_ZN15OrangutanBuzzer4initEv>
 14e:	10 92 11 01 	sts	0x0111, r1
 152:	17 fd       	sbrc	r17, 7
 154:	03 c0       	rjmp	.+6      	; 0x15c <_ZN15OrangutanBuzzer13playFrequencyEjjh+0x24>
 156:	dd 24       	eor	r13, r13
 158:	d3 94       	inc	r13
 15a:	03 c0       	rjmp	.+6      	; 0x162 <_ZN15OrangutanBuzzer13playFrequencyEjjh+0x2a>
 15c:	1f 77       	andi	r17, 0x7F	; 127
 15e:	9a e0       	ldi	r25, 0x0A	; 10
 160:	d9 2e       	mov	r13, r25
 162:	80 91 81 00 	lds	r24, 0x0081
 166:	e8 2e       	mov	r14, r24
 168:	ff 24       	eor	r15, r15
 16a:	48 ef       	ldi	r20, 0xF8	; 248
 16c:	e4 22       	and	r14, r20
 16e:	ff 24       	eor	r15, r15
 170:	2d 2d       	mov	r18, r13
 172:	33 27       	eor	r19, r19
 174:	80 e9       	ldi	r24, 0x90	; 144
 176:	91 e0       	ldi	r25, 0x01	; 1
 178:	ac 01       	movw	r20, r24
 17a:	24 9f       	mul	r18, r20
 17c:	c0 01       	movw	r24, r0
 17e:	25 9f       	mul	r18, r21
 180:	90 0d       	add	r25, r0
 182:	34 9f       	mul	r19, r20
 184:	90 0d       	add	r25, r0
 186:	11 24       	eor	r1, r1
 188:	80 17       	cp	r24, r16
 18a:	91 07       	cpc	r25, r17
 18c:	a8 f4       	brcc	.+42     	; 0x1b8 <_ZN15OrangutanBuzzer13playFrequencyEjjh+0x80>
 18e:	e8 01       	movw	r28, r16
 190:	01 51       	subi	r16, 0x11	; 17
 192:	17 42       	sbci	r17, 0x27	; 39
 194:	10 f0       	brcs	.+4      	; 0x19a <_ZN15OrangutanBuzzer13playFrequencyEjjh+0x62>
 196:	c0 e1       	ldi	r28, 0x10	; 16
 198:	d7 e2       	ldi	r29, 0x27	; 39
 19a:	9e 01       	movw	r18, r28
 19c:	44 27       	eor	r20, r20
 19e:	55 27       	eor	r21, r21
 1a0:	60 e0       	ldi	r22, 0x00	; 0
 1a2:	7d e2       	ldi	r23, 0x2D	; 45
 1a4:	81 e3       	ldi	r24, 0x31	; 49
 1a6:	91 e0       	ldi	r25, 0x01	; 1
 1a8:	0e 94 b1 05 	call	0xb62	; 0xb62 <__udivmodsi4>
 1ac:	89 01       	movw	r16, r18
 1ae:	81 e0       	ldi	r24, 0x01	; 1
 1b0:	90 e0       	ldi	r25, 0x00	; 0
 1b2:	e8 2a       	or	r14, r24
 1b4:	f9 2a       	or	r15, r25
 1b6:	20 c0       	rjmp	.+64     	; 0x1f8 <_ZN15OrangutanBuzzer13playFrequencyEjjh+0xc0>
 1b8:	88 e2       	ldi	r24, 0x28	; 40
 1ba:	d8 9e       	mul	r13, r24
 1bc:	80 2d       	mov	r24, r0
 1be:	11 24       	eor	r1, r1
 1c0:	c8 2f       	mov	r28, r24
 1c2:	dd 27       	eor	r29, r29
 1c4:	c0 17       	cp	r28, r16
 1c6:	d1 07       	cpc	r29, r17
 1c8:	08 f4       	brcc	.+2      	; 0x1cc <_ZN15OrangutanBuzzer13playFrequencyEjjh+0x94>
 1ca:	e8 01       	movw	r28, r16
 1cc:	9e 01       	movw	r18, r28
 1ce:	44 27       	eor	r20, r20
 1d0:	55 27       	eor	r21, r21
 1d2:	9a e0       	ldi	r25, 0x0A	; 10
 1d4:	d9 16       	cp	r13, r25
 1d6:	29 f4       	brne	.+10     	; 0x1e2 <_ZN15OrangutanBuzzer13playFrequencyEjjh+0xaa>
 1d8:	60 e4       	ldi	r22, 0x40	; 64
 1da:	78 e7       	ldi	r23, 0x78	; 120
 1dc:	8d e7       	ldi	r24, 0x7D	; 125
 1de:	91 e0       	ldi	r25, 0x01	; 1
 1e0:	04 c0       	rjmp	.+8      	; 0x1ea <_ZN15OrangutanBuzzer13playFrequencyEjjh+0xb2>
 1e2:	60 ea       	ldi	r22, 0xA0	; 160
 1e4:	75 e2       	ldi	r23, 0x25	; 37
 1e6:	86 e2       	ldi	r24, 0x26	; 38
 1e8:	90 e0       	ldi	r25, 0x00	; 0
 1ea:	0e 94 b1 05 	call	0xb62	; 0xb62 <__udivmodsi4>
 1ee:	89 01       	movw	r16, r18
 1f0:	42 e0       	ldi	r20, 0x02	; 2
 1f2:	50 e0       	ldi	r21, 0x00	; 0
 1f4:	e4 2a       	or	r14, r20
 1f6:	f5 2a       	or	r15, r21
 1f8:	5a e0       	ldi	r21, 0x0A	; 10
 1fa:	d5 16       	cp	r13, r21
 1fc:	39 f4       	brne	.+14     	; 0x20c <_ZN15OrangutanBuzzer13playFrequencyEjjh+0xd4>
 1fe:	ce 01       	movw	r24, r28
 200:	05 96       	adiw	r24, 0x05	; 5
 202:	6a e0       	ldi	r22, 0x0A	; 10
 204:	70 e0       	ldi	r23, 0x00	; 0
 206:	0e 94 9d 05 	call	0xb3a	; 0xb3a <__udivmodhi4>
 20a:	eb 01       	movw	r28, r22
 20c:	83 e0       	ldi	r24, 0x03	; 3
 20e:	c8 3e       	cpi	r28, 0xE8	; 232
 210:	d8 07       	cpc	r29, r24
 212:	11 f4       	brne	.+4      	; 0x218 <_ZN15OrangutanBuzzer13playFrequencyEjjh+0xe0>
 214:	b5 01       	movw	r22, r10
 216:	0f c0       	rjmp	.+30     	; 0x236 <_ZN15OrangutanBuzzer13playFrequencyEjjh+0xfe>
 218:	be 01       	movw	r22, r28
 21a:	88 27       	eor	r24, r24
 21c:	99 27       	eor	r25, r25
 21e:	95 01       	movw	r18, r10
 220:	44 27       	eor	r20, r20
 222:	55 27       	eor	r21, r21
 224:	0e 94 72 05 	call	0xae4	; 0xae4 <__mulsi3>
 228:	28 ee       	ldi	r18, 0xE8	; 232
 22a:	33 e0       	ldi	r19, 0x03	; 3
 22c:	40 e0       	ldi	r20, 0x00	; 0
 22e:	50 e0       	ldi	r21, 0x00	; 0
 230:	0e 94 d3 05 	call	0xba6	; 0xba6 <__divmodsi4>
 234:	b9 01       	movw	r22, r18
 236:	cc 20       	and	r12, r12
 238:	11 f4       	brne	.+4      	; 0x23e <_ZN15OrangutanBuzzer13playFrequencyEjjh+0x106>
 23a:	22 98       	cbi	0x04, 2	; 4
 23c:	06 c0       	rjmp	.+12     	; 0x24a <_ZN15OrangutanBuzzer13playFrequencyEjjh+0x112>
 23e:	22 9a       	sbi	0x04, 2	; 4
 240:	9f e0       	ldi	r25, 0x0F	; 15
 242:	9c 15       	cp	r25, r12
 244:	10 f4       	brcc	.+4      	; 0x24a <_ZN15OrangutanBuzzer13playFrequencyEjjh+0x112>
 246:	8f e0       	ldi	r24, 0x0F	; 15
 248:	c8 2e       	mov	r12, r24
 24a:	10 92 6f 00 	sts	0x006F, r1
 24e:	e0 92 81 00 	sts	0x0081, r14
 252:	10 93 89 00 	sts	0x0089, r17
 256:	00 93 88 00 	sts	0x0088, r16
 25a:	20 91 88 00 	lds	r18, 0x0088
 25e:	30 91 89 00 	lds	r19, 0x0089
 262:	80 e1       	ldi	r24, 0x10	; 16
 264:	90 e0       	ldi	r25, 0x00	; 0
 266:	8c 19       	sub	r24, r12
 268:	91 09       	sbc	r25, r1
 26a:	02 c0       	rjmp	.+4      	; 0x270 <_ZN15OrangutanBuzzer13playFrequencyEjjh+0x138>
 26c:	36 95       	lsr	r19
 26e:	27 95       	ror	r18
 270:	8a 95       	dec	r24
 272:	e2 f7       	brpl	.-8      	; 0x26c <_ZN15OrangutanBuzzer13playFrequencyEjjh+0x134>
 274:	30 93 8b 00 	sts	0x008B, r19
 278:	20 93 8a 00 	sts	0x008A, r18
 27c:	70 93 24 01 	sts	0x0124, r23
 280:	60 93 23 01 	sts	0x0123, r22
 284:	86 b3       	in	r24, 0x16	; 22
 286:	8f ef       	ldi	r24, 0xFF	; 255
 288:	86 bb       	out	0x16, r24	; 22
 28a:	81 e0       	ldi	r24, 0x01	; 1
 28c:	80 93 6f 00 	sts	0x006F, r24
 290:	78 94       	sei
 292:	ea e0       	ldi	r30, 0x0A	; 10
 294:	cd b7       	in	r28, 0x3d	; 61
 296:	de b7       	in	r29, 0x3e	; 62
 298:	0c 94 12 06 	jmp	0xc24	; 0xc24 <__epilogue_restores__+0x10>

0000029c <_ZN15OrangutanBuzzer8playNoteEhjh>:
 29c:	cf 93       	push	r28
 29e:	df 93       	push	r29
 2a0:	eb 01       	movw	r28, r22
 2a2:	8f 3f       	cpi	r24, 0xFF	; 255
 2a4:	11 f0       	breq	.+4      	; 0x2aa <_ZN15OrangutanBuzzer8playNoteEhjh+0xe>
 2a6:	44 23       	and	r20, r20
 2a8:	29 f4       	brne	.+10     	; 0x2b4 <_ZN15OrangutanBuzzer8playNoteEhjh+0x18>
 2aa:	40 e0       	ldi	r20, 0x00	; 0
 2ac:	be 01       	movw	r22, r28
 2ae:	88 ee       	ldi	r24, 0xE8	; 232
 2b0:	93 e0       	ldi	r25, 0x03	; 3
 2b2:	69 c0       	rjmp	.+210    	; 0x386 <_ZN15OrangutanBuzzer8playNoteEhjh+0xea>
 2b4:	81 31       	cpi	r24, 0x11	; 17
 2b6:	10 f4       	brcc	.+4      	; 0x2bc <_ZN15OrangutanBuzzer8playNoteEhjh+0x20>
 2b8:	20 e0       	ldi	r18, 0x00	; 0
 2ba:	05 c0       	rjmp	.+10     	; 0x2c6 <_ZN15OrangutanBuzzer8playNoteEhjh+0x2a>
 2bc:	28 2f       	mov	r18, r24
 2be:	20 51       	subi	r18, 0x10	; 16
 2c0:	20 36       	cpi	r18, 0x60	; 96
 2c2:	08 f0       	brcs	.+2      	; 0x2c6 <_ZN15OrangutanBuzzer8playNoteEhjh+0x2a>
 2c4:	2f e5       	ldi	r18, 0x5F	; 95
 2c6:	82 2f       	mov	r24, r18
 2c8:	6c e0       	ldi	r22, 0x0C	; 12
 2ca:	0e 94 91 05 	call	0xb22	; 0xb22 <__udivmodqi4>
 2ce:	38 2f       	mov	r19, r24
 2d0:	68 2f       	mov	r22, r24
 2d2:	77 27       	eor	r23, r23
 2d4:	e2 2f       	mov	r30, r18
 2d6:	ff 27       	eor	r31, r31
 2d8:	cb 01       	movw	r24, r22
 2da:	88 0f       	add	r24, r24
 2dc:	99 1f       	adc	r25, r25
 2de:	86 0f       	add	r24, r22
 2e0:	97 1f       	adc	r25, r23
 2e2:	88 0f       	add	r24, r24
 2e4:	99 1f       	adc	r25, r25
 2e6:	88 0f       	add	r24, r24
 2e8:	99 1f       	adc	r25, r25
 2ea:	e8 1b       	sub	r30, r24
 2ec:	f9 0b       	sbc	r31, r25
 2ee:	ec 30       	cpi	r30, 0x0C	; 12
 2f0:	f1 05       	cpc	r31, r1
 2f2:	38 f4       	brcc	.+14     	; 0x302 <_ZN15OrangutanBuzzer8playNoteEhjh+0x66>
 2f4:	ec 5c       	subi	r30, 0xCC	; 204
 2f6:	ff 4f       	sbci	r31, 0xFF	; 255
 2f8:	0c 94 25 06 	jmp	0xc4a	; 0xc4a <__tablejump2__>
 2fc:	8a e0       	ldi	r24, 0x0A	; 10
 2fe:	93 e0       	ldi	r25, 0x03	; 3
 300:	23 c0       	rjmp	.+70     	; 0x348 <_ZN15OrangutanBuzzer8playNoteEhjh+0xac>
 302:	80 e0       	ldi	r24, 0x00	; 0
 304:	90 e0       	ldi	r25, 0x00	; 0
 306:	20 c0       	rjmp	.+64     	; 0x348 <_ZN15OrangutanBuzzer8playNoteEhjh+0xac>
 308:	8c e9       	ldi	r24, 0x9C	; 156
 30a:	91 e0       	ldi	r25, 0x01	; 1
 30c:	1d c0       	rjmp	.+58     	; 0x348 <_ZN15OrangutanBuzzer8playNoteEhjh+0xac>
 30e:	85 eb       	ldi	r24, 0xB5	; 181
 310:	91 e0       	ldi	r25, 0x01	; 1
 312:	1a c0       	rjmp	.+52     	; 0x348 <_ZN15OrangutanBuzzer8playNoteEhjh+0xac>
 314:	8f ec       	ldi	r24, 0xCF	; 207
 316:	91 e0       	ldi	r25, 0x01	; 1
 318:	17 c0       	rjmp	.+46     	; 0x348 <_ZN15OrangutanBuzzer8playNoteEhjh+0xac>
 31a:	8a ee       	ldi	r24, 0xEA	; 234
 31c:	91 e0       	ldi	r25, 0x01	; 1
 31e:	14 c0       	rjmp	.+40     	; 0x348 <_ZN15OrangutanBuzzer8playNoteEhjh+0xac>
 320:	87 e0       	ldi	r24, 0x07	; 7
 322:	92 e0       	ldi	r25, 0x02	; 2
 324:	11 c0       	rjmp	.+34     	; 0x348 <_ZN15OrangutanBuzzer8playNoteEhjh+0xac>
 326:	86 e2       	ldi	r24, 0x26	; 38
 328:	92 e0       	ldi	r25, 0x02	; 2
 32a:	0e c0       	rjmp	.+28     	; 0x348 <_ZN15OrangutanBuzzer8playNoteEhjh+0xac>
 32c:	87 e4       	ldi	r24, 0x47	; 71
 32e:	92 e0       	ldi	r25, 0x02	; 2
 330:	0b c0       	rjmp	.+22     	; 0x348 <_ZN15OrangutanBuzzer8playNoteEhjh+0xac>
 332:	89 e6       	ldi	r24, 0x69	; 105
 334:	92 e0       	ldi	r25, 0x02	; 2
 336:	08 c0       	rjmp	.+16     	; 0x348 <_ZN15OrangutanBuzzer8playNoteEhjh+0xac>
 338:	8e e8       	ldi	r24, 0x8E	; 142
 33a:	92 e0       	ldi	r25, 0x02	; 2
 33c:	05 c0       	rjmp	.+10     	; 0x348 <_ZN15OrangutanBuzzer8playNoteEhjh+0xac>
 33e:	85 eb       	ldi	r24, 0xB5	; 181
 340:	92 e0       	ldi	r25, 0x02	; 2
 342:	02 c0       	rjmp	.+4      	; 0x348 <_ZN15OrangutanBuzzer8playNoteEhjh+0xac>
 344:	8e ed       	ldi	r24, 0xDE	; 222
 346:	92 e0       	ldi	r25, 0x02	; 2
 348:	37 30       	cpi	r19, 0x07	; 7
 34a:	70 f4       	brcc	.+28     	; 0x368 <_ZN15OrangutanBuzzer8playNoteEhjh+0xcc>
 34c:	02 c0       	rjmp	.+4      	; 0x352 <_ZN15OrangutanBuzzer8playNoteEhjh+0xb6>
 34e:	88 0f       	add	r24, r24
 350:	99 1f       	adc	r25, r25
 352:	6a 95       	dec	r22
 354:	e2 f7       	brpl	.-8      	; 0x34e <_ZN15OrangutanBuzzer8playNoteEhjh+0xb2>
 356:	32 30       	cpi	r19, 0x02	; 2
 358:	20 f0       	brcs	.+8      	; 0x362 <_ZN15OrangutanBuzzer8playNoteEhjh+0xc6>
 35a:	05 96       	adiw	r24, 0x05	; 5
 35c:	6a e0       	ldi	r22, 0x0A	; 10
 35e:	70 e0       	ldi	r23, 0x00	; 0
 360:	0b c0       	rjmp	.+22     	; 0x378 <_ZN15OrangutanBuzzer8playNoteEhjh+0xdc>
 362:	80 50       	subi	r24, 0x00	; 0
 364:	90 48       	sbci	r25, 0x80	; 128
 366:	0b c0       	rjmp	.+22     	; 0x37e <_ZN15OrangutanBuzzer8playNoteEhjh+0xe2>
 368:	26 e0       	ldi	r18, 0x06	; 6
 36a:	88 0f       	add	r24, r24
 36c:	99 1f       	adc	r25, r25
 36e:	2a 95       	dec	r18
 370:	e1 f7       	brne	.-8      	; 0x36a <_ZN15OrangutanBuzzer8playNoteEhjh+0xce>
 372:	02 96       	adiw	r24, 0x02	; 2
 374:	65 e0       	ldi	r22, 0x05	; 5
 376:	70 e0       	ldi	r23, 0x00	; 0
 378:	0e 94 9d 05 	call	0xb3a	; 0xb3a <__udivmodhi4>
 37c:	cb 01       	movw	r24, r22
 37e:	40 31       	cpi	r20, 0x10	; 16
 380:	08 f0       	brcs	.+2      	; 0x384 <_ZN15OrangutanBuzzer8playNoteEhjh+0xe8>
 382:	4f e0       	ldi	r20, 0x0F	; 15
 384:	be 01       	movw	r22, r28
 386:	0e 94 9c 00 	call	0x138	; 0x138 <_ZN15OrangutanBuzzer13playFrequencyEjjh>
 38a:	df 91       	pop	r29
 38c:	cf 91       	pop	r28
 38e:	08 95       	ret

00000390 <_Z16currentCharacterv>:
 390:	40 91 22 01 	lds	r20, 0x0122
 394:	e0 91 1d 01 	lds	r30, 0x011D
 398:	f0 91 1e 01 	lds	r31, 0x011E
 39c:	44 23       	and	r20, r20
 39e:	11 f0       	breq	.+4      	; 0x3a4 <_Z16currentCharacterv+0x14>
 3a0:	94 91       	lpm	r25, Z+
 3a2:	01 c0       	rjmp	.+2      	; 0x3a6 <_Z16currentCharacterv+0x16>
 3a4:	90 81       	ld	r25, Z
 3a6:	89 2f       	mov	r24, r25
 3a8:	81 54       	subi	r24, 0x41	; 65
 3aa:	8a 31       	cpi	r24, 0x1A	; 26
 3ac:	08 f4       	brcc	.+2      	; 0x3b0 <_Z16currentCharacterv+0x20>
 3ae:	90 5e       	subi	r25, 0xE0	; 224
 3b0:	90 32       	cpi	r25, 0x20	; 32
 3b2:	29 f0       	breq	.+10     	; 0x3be <_Z16currentCharacterv+0x2e>
 3b4:	f0 93 1e 01 	sts	0x011E, r31
 3b8:	e0 93 1d 01 	sts	0x011D, r30
 3bc:	0b c0       	rjmp	.+22     	; 0x3d4 <_Z16currentCharacterv+0x44>
 3be:	9f 01       	movw	r18, r30
 3c0:	2f 5f       	subi	r18, 0xFF	; 255
 3c2:	3f 4f       	sbci	r19, 0xFF	; 255
 3c4:	f9 01       	movw	r30, r18
 3c6:	21 30       	cpi	r18, 0x01	; 1
 3c8:	31 05       	cpc	r19, r1
 3ca:	41 f7       	brne	.-48     	; 0x39c <_Z16currentCharacterv+0xc>
 3cc:	30 93 1e 01 	sts	0x011E, r19
 3d0:	20 93 1d 01 	sts	0x011D, r18
 3d4:	89 2f       	mov	r24, r25
 3d6:	99 27       	eor	r25, r25
 3d8:	87 fd       	sbrc	r24, 7
 3da:	90 95       	com	r25
 3dc:	08 95       	ret

000003de <_Z9getNumberv>:
 3de:	cf 93       	push	r28
 3e0:	df 93       	push	r29
 3e2:	0e 94 c8 01 	call	0x390	; 0x390 <_Z16currentCharacterv>
 3e6:	28 2f       	mov	r18, r24
 3e8:	c0 e0       	ldi	r28, 0x00	; 0
 3ea:	d0 e0       	ldi	r29, 0x00	; 0
 3ec:	1d c0       	rjmp	.+58     	; 0x428 <_Z9getNumberv+0x4a>
 3ee:	ce 01       	movw	r24, r28
 3f0:	33 e0       	ldi	r19, 0x03	; 3
 3f2:	88 0f       	add	r24, r24
 3f4:	99 1f       	adc	r25, r25
 3f6:	3a 95       	dec	r19
 3f8:	e1 f7       	brne	.-8      	; 0x3f2 <_Z9getNumberv+0x14>
 3fa:	cc 0f       	add	r28, r28
 3fc:	dd 1f       	adc	r29, r29
 3fe:	c8 0f       	add	r28, r24
 400:	d9 1f       	adc	r29, r25
 402:	82 2f       	mov	r24, r18
 404:	99 27       	eor	r25, r25
 406:	87 fd       	sbrc	r24, 7
 408:	90 95       	com	r25
 40a:	c8 0f       	add	r28, r24
 40c:	d9 1f       	adc	r29, r25
 40e:	e0 97       	sbiw	r28, 0x30	; 48
 410:	80 91 1d 01 	lds	r24, 0x011D
 414:	90 91 1e 01 	lds	r25, 0x011E
 418:	01 96       	adiw	r24, 0x01	; 1
 41a:	90 93 1e 01 	sts	0x011E, r25
 41e:	80 93 1d 01 	sts	0x011D, r24
 422:	0e 94 c8 01 	call	0x390	; 0x390 <_Z16currentCharacterv>
 426:	28 2f       	mov	r18, r24
 428:	82 2f       	mov	r24, r18
 42a:	80 53       	subi	r24, 0x30	; 48
 42c:	8a 30       	cpi	r24, 0x0A	; 10
 42e:	f8 f2       	brcs	.-66     	; 0x3ee <_Z9getNumberv+0x10>
 430:	ce 01       	movw	r24, r28
 432:	df 91       	pop	r29
 434:	cf 91       	pop	r28
 436:	08 95       	ret

00000438 <_Z8nextNotev>:
 438:	a0 e0       	ldi	r26, 0x00	; 0
 43a:	b0 e0       	ldi	r27, 0x00	; 0
 43c:	e2 e2       	ldi	r30, 0x22	; 34
 43e:	f2 e0       	ldi	r31, 0x02	; 2
 440:	0c 94 f4 05 	jmp	0xbe8	; 0xbe8 <__prologue_saves__+0xc>
 444:	90 90 12 01 	lds	r9, 0x0112
 448:	b0 90 20 01 	lds	r11, 0x0120
 44c:	bb 20       	and	r11, r11
 44e:	21 f0       	breq	.+8      	; 0x458 <_Z8nextNotev+0x20>
 450:	60 91 21 01 	lds	r22, 0x0121
 454:	66 23       	and	r22, r22
 456:	a1 f4       	brne	.+40     	; 0x480 <_Z8nextNotev+0x48>
 458:	a0 90 21 01 	lds	r10, 0x0121
 45c:	c0 90 19 01 	lds	r12, 0x0119
 460:	d0 90 1a 01 	lds	r13, 0x011A
 464:	00 91 17 01 	lds	r16, 0x0117
 468:	10 91 18 01 	lds	r17, 0x0118
 46c:	e0 90 13 01 	lds	r14, 0x0113
 470:	f0 90 14 01 	lds	r15, 0x0114
 474:	c0 91 15 01 	lds	r28, 0x0115
 478:	d0 91 16 01 	lds	r29, 0x0116
 47c:	89 2c       	mov	r8, r9
 47e:	17 c0       	rjmp	.+46     	; 0x4ae <_Z8nextNotev+0x76>
 480:	77 27       	eor	r23, r23
 482:	40 e0       	ldi	r20, 0x00	; 0
 484:	8f ef       	ldi	r24, 0xFF	; 255
 486:	0e 94 4e 01 	call	0x29c	; 0x29c <_ZN15OrangutanBuzzer8playNoteEhjh>
 48a:	10 92 21 01 	sts	0x0121, r1
 48e:	ce c1       	rjmp	.+924    	; 0x82c <__stack+0x32d>
 490:	14 e0       	ldi	r17, 0x04	; 4
 492:	81 2e       	mov	r8, r17
 494:	bb 24       	eor	r11, r11
 496:	bf e0       	ldi	r27, 0x0F	; 15
 498:	cb 2e       	mov	r12, r27
 49a:	d1 2c       	mov	r13, r1
 49c:	04 ef       	ldi	r16, 0xF4	; 244
 49e:	11 e0       	ldi	r17, 0x01	; 1
 4a0:	a4 e0       	ldi	r26, 0x04	; 4
 4a2:	ea 2e       	mov	r14, r26
 4a4:	f1 2c       	mov	r15, r1
 4a6:	c0 ed       	ldi	r28, 0xD0	; 208
 4a8:	d7 e0       	ldi	r29, 0x07	; 7
 4aa:	f4 e0       	ldi	r31, 0x04	; 4
 4ac:	9f 2e       	mov	r9, r31
 4ae:	0e 94 c8 01 	call	0x390	; 0x390 <_Z16currentCharacterv>
 4b2:	28 2f       	mov	r18, r24
 4b4:	80 91 1d 01 	lds	r24, 0x011D
 4b8:	90 91 1e 01 	lds	r25, 0x011E
 4bc:	01 96       	adiw	r24, 0x01	; 1
 4be:	90 93 1e 01 	sts	0x011E, r25
 4c2:	80 93 1d 01 	sts	0x011D, r24
 4c6:	26 36       	cpi	r18, 0x66	; 102
 4c8:	09 f4       	brne	.+2      	; 0x4cc <_Z8nextNotev+0x94>
 4ca:	b2 c0       	rjmp	.+356    	; 0x630 <__stack+0x131>
 4cc:	27 36       	cpi	r18, 0x67	; 103
 4ce:	d4 f4       	brge	.+52     	; 0x504 <__stack+0x5>
 4d0:	22 36       	cpi	r18, 0x62	; 98
 4d2:	09 f4       	brne	.+2      	; 0x4d6 <_Z8nextNotev+0x9e>
 4d4:	4c c0       	rjmp	.+152    	; 0x56e <__stack+0x6f>
 4d6:	23 36       	cpi	r18, 0x63	; 99
 4d8:	74 f4       	brge	.+28     	; 0x4f6 <_Z8nextNotev+0xbe>
 4da:	2e 33       	cpi	r18, 0x3E	; 62
 4dc:	61 f1       	breq	.+88     	; 0x536 <__stack+0x37>
 4de:	2f 33       	cpi	r18, 0x3F	; 63
 4e0:	34 f4       	brge	.+12     	; 0x4ee <_Z8nextNotev+0xb6>
 4e2:	21 32       	cpi	r18, 0x21	; 33
 4e4:	a9 f2       	breq	.-86     	; 0x490 <_Z8nextNotev+0x58>
 4e6:	2c 33       	cpi	r18, 0x3C	; 60
 4e8:	09 f0       	breq	.+2      	; 0x4ec <_Z8nextNotev+0xb4>
 4ea:	0a c1       	rjmp	.+532    	; 0x700 <__stack+0x201>
 4ec:	26 c0       	rjmp	.+76     	; 0x53a <__stack+0x3b>
 4ee:	21 36       	cpi	r18, 0x61	; 97
 4f0:	09 f0       	breq	.+2      	; 0x4f4 <_Z8nextNotev+0xbc>
 4f2:	06 c1       	rjmp	.+524    	; 0x700 <__stack+0x201>
 4f4:	24 c0       	rjmp	.+72     	; 0x53e <__stack+0x3f>
 4f6:	24 36       	cpi	r18, 0x64	; 100
 4f8:	09 f4       	brne	.+2      	; 0x4fc <_Z8nextNotev+0xc4>
 4fa:	6a c0       	rjmp	.+212    	; 0x5d0 <__stack+0xd1>
 4fc:	25 36       	cpi	r18, 0x65	; 101
 4fe:	0c f0       	brlt	.+2      	; 0x502 <__stack+0x3>
 500:	7f c0       	rjmp	.+254    	; 0x600 <__stack+0x101>
 502:	4e c0       	rjmp	.+156    	; 0x5a0 <__stack+0xa1>
 504:	2f 36       	cpi	r18, 0x6F	; 111
 506:	09 f4       	brne	.+2      	; 0x50a <__stack+0xb>
 508:	da c0       	rjmp	.+436    	; 0x6be <__stack+0x1bf>
 50a:	20 37       	cpi	r18, 0x70	; 112
 50c:	54 f4       	brge	.+20     	; 0x522 <__stack+0x23>
 50e:	2c 36       	cpi	r18, 0x6C	; 108
 510:	09 f4       	brne	.+2      	; 0x514 <__stack+0x15>
 512:	be c0       	rjmp	.+380    	; 0x690 <__stack+0x191>
 514:	2d 36       	cpi	r18, 0x6D	; 109
 516:	09 f4       	brne	.+2      	; 0x51a <__stack+0x1b>
 518:	bf c0       	rjmp	.+382    	; 0x698 <__stack+0x199>
 51a:	27 36       	cpi	r18, 0x67	; 103
 51c:	09 f0       	breq	.+2      	; 0x520 <__stack+0x21>
 51e:	f0 c0       	rjmp	.+480    	; 0x700 <__stack+0x201>
 520:	9f c0       	rjmp	.+318    	; 0x660 <__stack+0x161>
 522:	24 37       	cpi	r18, 0x74	; 116
 524:	09 f4       	brne	.+2      	; 0x528 <__stack+0x29>
 526:	d0 c0       	rjmp	.+416    	; 0x6c8 <__stack+0x1c9>
 528:	26 37       	cpi	r18, 0x76	; 118
 52a:	09 f4       	brne	.+2      	; 0x52e <__stack+0x2f>
 52c:	e5 c0       	rjmp	.+458    	; 0x6f8 <__stack+0x1f9>
 52e:	22 37       	cpi	r18, 0x72	; 114
 530:	09 f0       	breq	.+2      	; 0x534 <__stack+0x35>
 532:	e6 c0       	rjmp	.+460    	; 0x700 <__stack+0x201>
 534:	00 c1       	rjmp	.+512    	; 0x736 <__stack+0x237>
 536:	83 94       	inc	r8
 538:	ba cf       	rjmp	.-140    	; 0x4ae <_Z8nextNotev+0x76>
 53a:	8a 94       	dec	r8
 53c:	b8 cf       	rjmp	.-144    	; 0x4ae <_Z8nextNotev+0x76>
 53e:	a0 92 21 01 	sts	0x0121, r10
 542:	b0 92 20 01 	sts	0x0120, r11
 546:	d0 92 1a 01 	sts	0x011A, r13
 54a:	c0 92 19 01 	sts	0x0119, r12
 54e:	10 93 18 01 	sts	0x0118, r17
 552:	00 93 17 01 	sts	0x0117, r16
 556:	f0 92 14 01 	sts	0x0114, r15
 55a:	e0 92 13 01 	sts	0x0113, r14
 55e:	d0 93 16 01 	sts	0x0116, r29
 562:	c0 93 15 01 	sts	0x0115, r28
 566:	90 92 12 01 	sts	0x0112, r9
 56a:	29 e0       	ldi	r18, 0x09	; 9
 56c:	17 c0       	rjmp	.+46     	; 0x59c <__stack+0x9d>
 56e:	a0 92 21 01 	sts	0x0121, r10
 572:	b0 92 20 01 	sts	0x0120, r11
 576:	d0 92 1a 01 	sts	0x011A, r13
 57a:	c0 92 19 01 	sts	0x0119, r12
 57e:	10 93 18 01 	sts	0x0118, r17
 582:	00 93 17 01 	sts	0x0117, r16
 586:	f0 92 14 01 	sts	0x0114, r15
 58a:	e0 92 13 01 	sts	0x0113, r14
 58e:	d0 93 16 01 	sts	0x0116, r29
 592:	c0 93 15 01 	sts	0x0115, r28
 596:	90 92 12 01 	sts	0x0112, r9
 59a:	2b e0       	ldi	r18, 0x0B	; 11
 59c:	ee 24       	eor	r14, r14
 59e:	e4 c0       	rjmp	.+456    	; 0x768 <__stack+0x269>
 5a0:	a0 92 21 01 	sts	0x0121, r10
 5a4:	b0 92 20 01 	sts	0x0120, r11
 5a8:	d0 92 1a 01 	sts	0x011A, r13
 5ac:	c0 92 19 01 	sts	0x0119, r12
 5b0:	10 93 18 01 	sts	0x0118, r17
 5b4:	00 93 17 01 	sts	0x0117, r16
 5b8:	f0 92 14 01 	sts	0x0114, r15
 5bc:	e0 92 13 01 	sts	0x0113, r14
 5c0:	d0 93 16 01 	sts	0x0116, r29
 5c4:	c0 93 15 01 	sts	0x0115, r28
 5c8:	90 92 12 01 	sts	0x0112, r9
 5cc:	20 e0       	ldi	r18, 0x00	; 0
 5ce:	e6 cf       	rjmp	.-52     	; 0x59c <__stack+0x9d>
 5d0:	a0 92 21 01 	sts	0x0121, r10
 5d4:	b0 92 20 01 	sts	0x0120, r11
 5d8:	d0 92 1a 01 	sts	0x011A, r13
 5dc:	c0 92 19 01 	sts	0x0119, r12
 5e0:	10 93 18 01 	sts	0x0118, r17
 5e4:	00 93 17 01 	sts	0x0117, r16
 5e8:	f0 92 14 01 	sts	0x0114, r15
 5ec:	e0 92 13 01 	sts	0x0113, r14
 5f0:	d0 93 16 01 	sts	0x0116, r29
 5f4:	c0 93 15 01 	sts	0x0115, r28
 5f8:	90 92 12 01 	sts	0x0112, r9
 5fc:	22 e0       	ldi	r18, 0x02	; 2
 5fe:	ce cf       	rjmp	.-100    	; 0x59c <__stack+0x9d>
 600:	a0 92 21 01 	sts	0x0121, r10
 604:	b0 92 20 01 	sts	0x0120, r11
 608:	d0 92 1a 01 	sts	0x011A, r13
 60c:	c0 92 19 01 	sts	0x0119, r12
 610:	10 93 18 01 	sts	0x0118, r17
 614:	00 93 17 01 	sts	0x0117, r16
 618:	f0 92 14 01 	sts	0x0114, r15
 61c:	e0 92 13 01 	sts	0x0113, r14
 620:	d0 93 16 01 	sts	0x0116, r29
 624:	c0 93 15 01 	sts	0x0115, r28
 628:	90 92 12 01 	sts	0x0112, r9
 62c:	24 e0       	ldi	r18, 0x04	; 4
 62e:	b6 cf       	rjmp	.-148    	; 0x59c <__stack+0x9d>
 630:	a0 92 21 01 	sts	0x0121, r10
 634:	b0 92 20 01 	sts	0x0120, r11
 638:	d0 92 1a 01 	sts	0x011A, r13
 63c:	c0 92 19 01 	sts	0x0119, r12
 640:	10 93 18 01 	sts	0x0118, r17
 644:	00 93 17 01 	sts	0x0117, r16
 648:	f0 92 14 01 	sts	0x0114, r15
 64c:	e0 92 13 01 	sts	0x0113, r14
 650:	d0 93 16 01 	sts	0x0116, r29
 654:	c0 93 15 01 	sts	0x0115, r28
 658:	90 92 12 01 	sts	0x0112, r9
 65c:	25 e0       	ldi	r18, 0x05	; 5
 65e:	9e cf       	rjmp	.-196    	; 0x59c <__stack+0x9d>
 660:	a0 92 21 01 	sts	0x0121, r10
 664:	b0 92 20 01 	sts	0x0120, r11
 668:	d0 92 1a 01 	sts	0x011A, r13
 66c:	c0 92 19 01 	sts	0x0119, r12
 670:	10 93 18 01 	sts	0x0118, r17
 674:	00 93 17 01 	sts	0x0117, r16
 678:	f0 92 14 01 	sts	0x0114, r15
 67c:	e0 92 13 01 	sts	0x0113, r14
 680:	d0 93 16 01 	sts	0x0116, r29
 684:	c0 93 15 01 	sts	0x0115, r28
 688:	90 92 12 01 	sts	0x0112, r9
 68c:	27 e0       	ldi	r18, 0x07	; 7
 68e:	86 cf       	rjmp	.-244    	; 0x59c <__stack+0x9d>
 690:	0e 94 ef 01 	call	0x3de	; 0x3de <_Z9getNumberv>
 694:	7c 01       	movw	r14, r24
 696:	2a c0       	rjmp	.+84     	; 0x6ec <__stack+0x1ed>
 698:	0e 94 c8 01 	call	0x390	; 0x390 <_Z16currentCharacterv>
 69c:	8c 36       	cpi	r24, 0x6C	; 108
 69e:	21 f0       	breq	.+8      	; 0x6a8 <__stack+0x1a9>
 6a0:	aa 24       	eor	r10, r10
 6a2:	bb 24       	eor	r11, r11
 6a4:	b3 94       	inc	r11
 6a6:	01 c0       	rjmp	.+2      	; 0x6aa <__stack+0x1ab>
 6a8:	bb 24       	eor	r11, r11
 6aa:	80 91 1d 01 	lds	r24, 0x011D
 6ae:	90 91 1e 01 	lds	r25, 0x011E
 6b2:	01 96       	adiw	r24, 0x01	; 1
 6b4:	90 93 1e 01 	sts	0x011E, r25
 6b8:	80 93 1d 01 	sts	0x011D, r24
 6bc:	f8 ce       	rjmp	.-528    	; 0x4ae <_Z8nextNotev+0x76>
 6be:	0e 94 ef 01 	call	0x3de	; 0x3de <_Z9getNumberv>
 6c2:	88 2e       	mov	r8, r24
 6c4:	98 2e       	mov	r9, r24
 6c6:	f3 ce       	rjmp	.-538    	; 0x4ae <_Z8nextNotev+0x76>
 6c8:	0e 94 ef 01 	call	0x3de	; 0x3de <_Z9getNumberv>
 6cc:	bc 01       	movw	r22, r24
 6ce:	80 ec       	ldi	r24, 0xC0	; 192
 6d0:	9d e5       	ldi	r25, 0x5D	; 93
 6d2:	0e 94 9d 05 	call	0xb3a	; 0xb3a <__udivmodhi4>
 6d6:	cb 01       	movw	r24, r22
 6d8:	e3 e0       	ldi	r30, 0x03	; 3
 6da:	88 0f       	add	r24, r24
 6dc:	99 1f       	adc	r25, r25
 6de:	ea 95       	dec	r30
 6e0:	e1 f7       	brne	.-8      	; 0x6da <__stack+0x1db>
 6e2:	eb 01       	movw	r28, r22
 6e4:	cc 0f       	add	r28, r28
 6e6:	dd 1f       	adc	r29, r29
 6e8:	c8 0f       	add	r28, r24
 6ea:	d9 1f       	adc	r29, r25
 6ec:	ce 01       	movw	r24, r28
 6ee:	b7 01       	movw	r22, r14
 6f0:	0e 94 9d 05 	call	0xb3a	; 0xb3a <__udivmodhi4>
 6f4:	8b 01       	movw	r16, r22
 6f6:	db ce       	rjmp	.-586    	; 0x4ae <_Z8nextNotev+0x76>
 6f8:	0e 94 ef 01 	call	0x3de	; 0x3de <_Z9getNumberv>
 6fc:	6c 01       	movw	r12, r24
 6fe:	d7 ce       	rjmp	.-594    	; 0x4ae <_Z8nextNotev+0x76>
 700:	a0 92 21 01 	sts	0x0121, r10
 704:	b0 92 20 01 	sts	0x0120, r11
 708:	d0 92 1a 01 	sts	0x011A, r13
 70c:	c0 92 19 01 	sts	0x0119, r12
 710:	10 93 18 01 	sts	0x0118, r17
 714:	00 93 17 01 	sts	0x0117, r16
 718:	f0 92 14 01 	sts	0x0114, r15
 71c:	e0 92 13 01 	sts	0x0113, r14
 720:	d0 93 16 01 	sts	0x0116, r29
 724:	c0 93 15 01 	sts	0x0115, r28
 728:	90 92 12 01 	sts	0x0112, r9
 72c:	10 92 1e 01 	sts	0x011E, r1
 730:	10 92 1d 01 	sts	0x011D, r1
 734:	7b c0       	rjmp	.+246    	; 0x82c <__stack+0x32d>
 736:	a0 92 21 01 	sts	0x0121, r10
 73a:	b0 92 20 01 	sts	0x0120, r11
 73e:	d0 92 1a 01 	sts	0x011A, r13
 742:	c0 92 19 01 	sts	0x0119, r12
 746:	10 93 18 01 	sts	0x0118, r17
 74a:	00 93 17 01 	sts	0x0117, r16
 74e:	f0 92 14 01 	sts	0x0114, r15
 752:	e0 92 13 01 	sts	0x0113, r14
 756:	d0 93 16 01 	sts	0x0116, r29
 75a:	c0 93 15 01 	sts	0x0115, r28
 75e:	90 92 12 01 	sts	0x0112, r9
 762:	20 e0       	ldi	r18, 0x00	; 0
 764:	ee 24       	eor	r14, r14
 766:	e3 94       	inc	r14
 768:	8c e0       	ldi	r24, 0x0C	; 12
 76a:	88 9e       	mul	r8, r24
 76c:	c0 01       	movw	r24, r0
 76e:	11 24       	eor	r1, r1
 770:	f2 2e       	mov	r15, r18
 772:	f8 0e       	add	r15, r24
 774:	0a c0       	rjmp	.+20     	; 0x78a <__stack+0x28b>
 776:	80 91 1d 01 	lds	r24, 0x011D
 77a:	90 91 1e 01 	lds	r25, 0x011E
 77e:	01 96       	adiw	r24, 0x01	; 1
 780:	90 93 1e 01 	sts	0x011E, r25
 784:	80 93 1d 01 	sts	0x011D, r24
 788:	f3 94       	inc	r15
 78a:	0e 94 c8 01 	call	0x390	; 0x390 <_Z16currentCharacterv>
 78e:	8b 32       	cpi	r24, 0x2B	; 43
 790:	91 f3       	breq	.-28     	; 0x776 <__stack+0x277>
 792:	83 32       	cpi	r24, 0x23	; 35
 794:	81 f3       	breq	.-32     	; 0x776 <__stack+0x277>
 796:	0c c0       	rjmp	.+24     	; 0x7b0 <__stack+0x2b1>
 798:	80 91 1d 01 	lds	r24, 0x011D
 79c:	90 91 1e 01 	lds	r25, 0x011E
 7a0:	01 96       	adiw	r24, 0x01	; 1
 7a2:	90 93 1e 01 	sts	0x011E, r25
 7a6:	80 93 1d 01 	sts	0x011D, r24
 7aa:	fa 94       	dec	r15
 7ac:	0e 94 c8 01 	call	0x390	; 0x390 <_Z16currentCharacterv>
 7b0:	8d 32       	cpi	r24, 0x2D	; 45
 7b2:	91 f3       	breq	.-28     	; 0x798 <__stack+0x299>
 7b4:	c0 91 17 01 	lds	r28, 0x0117
 7b8:	d0 91 18 01 	lds	r29, 0x0118
 7bc:	81 53       	subi	r24, 0x31	; 49
 7be:	88 30       	cpi	r24, 0x08	; 8
 7c0:	58 f4       	brcc	.+22     	; 0x7d8 <__stack+0x2d9>
 7c2:	00 91 15 01 	lds	r16, 0x0115
 7c6:	10 91 16 01 	lds	r17, 0x0116
 7ca:	0e 94 ef 01 	call	0x3de	; 0x3de <_Z9getNumberv>
 7ce:	bc 01       	movw	r22, r24
 7d0:	c8 01       	movw	r24, r16
 7d2:	0e 94 9d 05 	call	0xb3a	; 0xb3a <__udivmodhi4>
 7d6:	eb 01       	movw	r28, r22
 7d8:	8e 01       	movw	r16, r28
 7da:	0b c0       	rjmp	.+22     	; 0x7f2 <__stack+0x2f3>
 7dc:	80 91 1d 01 	lds	r24, 0x011D
 7e0:	90 91 1e 01 	lds	r25, 0x011E
 7e4:	01 96       	adiw	r24, 0x01	; 1
 7e6:	90 93 1e 01 	sts	0x011E, r25
 7ea:	80 93 1d 01 	sts	0x011D, r24
 7ee:	c0 0f       	add	r28, r16
 7f0:	d1 1f       	adc	r29, r17
 7f2:	16 95       	lsr	r17
 7f4:	07 95       	ror	r16
 7f6:	0e 94 c8 01 	call	0x390	; 0x390 <_Z16currentCharacterv>
 7fa:	8e 32       	cpi	r24, 0x2E	; 46
 7fc:	79 f3       	breq	.-34     	; 0x7dc <__stack+0x2dd>
 7fe:	80 91 20 01 	lds	r24, 0x0120
 802:	88 23       	and	r24, r24
 804:	39 f0       	breq	.+14     	; 0x814 <__stack+0x315>
 806:	ce 01       	movw	r24, r28
 808:	96 95       	lsr	r25
 80a:	87 95       	ror	r24
 80c:	80 93 21 01 	sts	0x0121, r24
 810:	c8 1b       	sub	r28, r24
 812:	d1 09       	sbc	r29, r1
 814:	40 91 19 01 	lds	r20, 0x0119
 818:	50 91 1a 01 	lds	r21, 0x011A
 81c:	ee 20       	and	r14, r14
 81e:	11 f0       	breq	.+4      	; 0x824 <__stack+0x325>
 820:	ff 24       	eor	r15, r15
 822:	fa 94       	dec	r15
 824:	be 01       	movw	r22, r28
 826:	8f 2d       	mov	r24, r15
 828:	0e 94 4e 01 	call	0x29c	; 0x29c <_ZN15OrangutanBuzzer8playNoteEhjh>
 82c:	ec e0       	ldi	r30, 0x0C	; 12
 82e:	cd b7       	in	r28, 0x3d	; 61
 830:	de b7       	in	r29, 0x3e	; 62
 832:	0c 94 10 06 	jmp	0xc20	; 0xc20 <__epilogue_restores__+0xc>

00000836 <_ZN15OrangutanBuzzer4playEPKc>:
 836:	10 92 6f 00 	sts	0x006F, r1
 83a:	90 93 1e 01 	sts	0x011E, r25
 83e:	80 93 1d 01 	sts	0x011D, r24
 842:	10 92 22 01 	sts	0x0122, r1
 846:	10 92 21 01 	sts	0x0121, r1
 84a:	0e 94 1c 02 	call	0x438	; 0x438 <_Z8nextNotev>
 84e:	08 95       	ret

00000850 <play>:
 850:	0e 94 1b 04 	call	0x836	; 0x836 <_ZN15OrangutanBuzzer4playEPKc>
 854:	08 95       	ret

00000856 <__vector_13>:
 856:	1f 92       	push	r1
 858:	0f 92       	push	r0
 85a:	0f b6       	in	r0, 0x3f	; 63
 85c:	0f 92       	push	r0
 85e:	11 24       	eor	r1, r1
 860:	2f 93       	push	r18
 862:	3f 93       	push	r19
 864:	4f 93       	push	r20
 866:	5f 93       	push	r21
 868:	6f 93       	push	r22
 86a:	7f 93       	push	r23
 86c:	8f 93       	push	r24
 86e:	9f 93       	push	r25
 870:	af 93       	push	r26
 872:	bf 93       	push	r27
 874:	ef 93       	push	r30
 876:	ff 93       	push	r31
 878:	80 91 23 01 	lds	r24, 0x0123
 87c:	90 91 24 01 	lds	r25, 0x0124
 880:	01 97       	sbiw	r24, 0x01	; 1
 882:	90 93 24 01 	sts	0x0124, r25
 886:	80 93 23 01 	sts	0x0123, r24
 88a:	80 91 23 01 	lds	r24, 0x0123
 88e:	90 91 24 01 	lds	r25, 0x0124
 892:	8f 5f       	subi	r24, 0xFF	; 255
 894:	9f 4f       	sbci	r25, 0xFF	; 255
 896:	11 f5       	brne	.+68     	; 0x8dc <__vector_13+0x86>
 898:	80 91 81 00 	lds	r24, 0x0081
 89c:	88 7f       	andi	r24, 0xF8	; 248
 89e:	81 60       	ori	r24, 0x01	; 1
 8a0:	80 93 81 00 	sts	0x0081, r24
 8a4:	80 e2       	ldi	r24, 0x20	; 32
 8a6:	9e e4       	ldi	r25, 0x4E	; 78
 8a8:	90 93 89 00 	sts	0x0089, r25
 8ac:	80 93 88 00 	sts	0x0088, r24
 8b0:	10 92 8b 00 	sts	0x008B, r1
 8b4:	10 92 8a 00 	sts	0x008A, r1
 8b8:	22 98       	cbi	0x04, 2	; 4
 8ba:	81 e0       	ldi	r24, 0x01	; 1
 8bc:	80 93 11 01 	sts	0x0111, r24
 8c0:	10 92 6f 00 	sts	0x006F, r1
 8c4:	80 91 1d 01 	lds	r24, 0x011D
 8c8:	90 91 1e 01 	lds	r25, 0x011E
 8cc:	89 2b       	or	r24, r25
 8ce:	31 f0       	breq	.+12     	; 0x8dc <__vector_13+0x86>
 8d0:	80 91 1f 01 	lds	r24, 0x011F
 8d4:	88 23       	and	r24, r24
 8d6:	11 f4       	brne	.+4      	; 0x8dc <__vector_13+0x86>
 8d8:	0e 94 1c 02 	call	0x438	; 0x438 <_Z8nextNotev>
 8dc:	ff 91       	pop	r31
 8de:	ef 91       	pop	r30
 8e0:	bf 91       	pop	r27
 8e2:	af 91       	pop	r26
 8e4:	9f 91       	pop	r25
 8e6:	8f 91       	pop	r24
 8e8:	7f 91       	pop	r23
 8ea:	6f 91       	pop	r22
 8ec:	5f 91       	pop	r21
 8ee:	4f 91       	pop	r20
 8f0:	3f 91       	pop	r19
 8f2:	2f 91       	pop	r18
 8f4:	0f 90       	pop	r0
 8f6:	0f be       	out	0x3f, r0	; 63
 8f8:	0f 90       	pop	r0
 8fa:	1f 90       	pop	r1
 8fc:	18 95       	reti

000008fe <_ZN12OrangutanLCD8busyWaitEv>:
 8fe:	3a b1       	in	r19, 0x0a	; 10
 900:	57 98       	cbi	0x0a, 7	; 10
 902:	5a 98       	cbi	0x0b, 2	; 11
 904:	28 9a       	sbi	0x05, 0	; 5
 906:	5c 9a       	sbi	0x0b, 4	; 11
 908:	86 e0       	ldi	r24, 0x06	; 6
 90a:	98 2f       	mov	r25, r24
 90c:	9a 95       	dec	r25
 90e:	f1 f7       	brne	.-4      	; 0x90c <_ZN12OrangutanLCD8busyWaitEv+0xe>
 910:	99 b1       	in	r25, 0x09	; 9
 912:	5c 98       	cbi	0x0b, 4	; 11
 914:	28 2f       	mov	r18, r24
 916:	2a 95       	dec	r18
 918:	f1 f7       	brne	.-4      	; 0x916 <_ZN12OrangutanLCD8busyWaitEv+0x18>
 91a:	5c 9a       	sbi	0x0b, 4	; 11
 91c:	8a 95       	dec	r24
 91e:	f1 f7       	brne	.-4      	; 0x91c <_ZN12OrangutanLCD8busyWaitEv+0x1e>
 920:	5c 98       	cbi	0x0b, 4	; 11
 922:	97 fd       	sbrc	r25, 7
 924:	f0 cf       	rjmp	.-32     	; 0x906 <_ZN12OrangutanLCD8busyWaitEv+0x8>
 926:	3a b9       	out	0x0a, r19	; 10
 928:	08 95       	ret

0000092a <_ZN12OrangutanLCD10sendNibbleEh>:
 92a:	65 b1       	in	r22, 0x05	; 5
 92c:	99 27       	eor	r25, r25
 92e:	ac 01       	movw	r20, r24
 930:	41 70       	andi	r20, 0x01	; 1
 932:	50 70       	andi	r21, 0x00	; 0
 934:	44 0f       	add	r20, r20
 936:	55 1f       	adc	r21, r21
 938:	9c 01       	movw	r18, r24
 93a:	26 70       	andi	r18, 0x06	; 6
 93c:	30 70       	andi	r19, 0x00	; 0
 93e:	53 e0       	ldi	r21, 0x03	; 3
 940:	22 0f       	add	r18, r18
 942:	33 1f       	adc	r19, r19
 944:	5a 95       	dec	r21
 946:	e1 f7       	brne	.-8      	; 0x940 <_ZN12OrangutanLCD10sendNibbleEh+0x16>
 948:	42 2b       	or	r20, r18
 94a:	6d 7c       	andi	r22, 0xCD	; 205
 94c:	46 2b       	or	r20, r22
 94e:	45 b9       	out	0x05, r20	; 5
 950:	2b b1       	in	r18, 0x0b	; 11
 952:	88 70       	andi	r24, 0x08	; 8
 954:	90 70       	andi	r25, 0x00	; 0
 956:	34 e0       	ldi	r19, 0x04	; 4
 958:	88 0f       	add	r24, r24
 95a:	99 1f       	adc	r25, r25
 95c:	3a 95       	dec	r19
 95e:	e1 f7       	brne	.-8      	; 0x958 <_ZN12OrangutanLCD10sendNibbleEh+0x2e>
 960:	2f 77       	andi	r18, 0x7F	; 127
 962:	28 2b       	or	r18, r24
 964:	2b b9       	out	0x0b, r18	; 11
 966:	5c 9a       	sbi	0x0b, 4	; 11
 968:	86 e0       	ldi	r24, 0x06	; 6
 96a:	98 2f       	mov	r25, r24
 96c:	9a 95       	dec	r25
 96e:	f1 f7       	brne	.-4      	; 0x96c <_ZN12OrangutanLCD10sendNibbleEh+0x42>
 970:	5c 98       	cbi	0x0b, 4	; 11
 972:	8a 95       	dec	r24
 974:	f1 f7       	brne	.-4      	; 0x972 <_ZN12OrangutanLCD10sendNibbleEh+0x48>
 976:	08 95       	ret

00000978 <_ZN12OrangutanLCD4sendEhh>:
 978:	cf 92       	push	r12
 97a:	df 92       	push	r13
 97c:	ef 92       	push	r14
 97e:	ff 92       	push	r15
 980:	0f 93       	push	r16
 982:	1f 93       	push	r17
 984:	08 2f       	mov	r16, r24
 986:	16 2f       	mov	r17, r22
 988:	0e 94 2d 05 	call	0xa5a	; 0xa5a <_ZN12OrangutanLCD4initEv>
 98c:	0e 94 7f 04 	call	0x8fe	; 0x8fe <_ZN12OrangutanLCD8busyWaitEv>
 990:	c4 b0       	in	r12, 0x04	; 4
 992:	d5 b0       	in	r13, 0x05	; 5
 994:	ea b0       	in	r14, 0x0a	; 10
 996:	fb b0       	in	r15, 0x0b	; 11
 998:	5a 98       	cbi	0x0b, 2	; 11
 99a:	28 98       	cbi	0x05, 0	; 5
 99c:	8b b1       	in	r24, 0x0b	; 11
 99e:	11 0f       	add	r17, r17
 9a0:	11 0f       	add	r17, r17
 9a2:	81 2b       	or	r24, r17
 9a4:	8b b9       	out	0x0b, r24	; 11
 9a6:	84 b1       	in	r24, 0x04	; 4
 9a8:	82 63       	ori	r24, 0x32	; 50
 9aa:	84 b9       	out	0x04, r24	; 4
 9ac:	57 9a       	sbi	0x0a, 7	; 10
 9ae:	80 2f       	mov	r24, r16
 9b0:	82 95       	swap	r24
 9b2:	8f 70       	andi	r24, 0x0F	; 15
 9b4:	0e 94 95 04 	call	0x92a	; 0x92a <_ZN12OrangutanLCD10sendNibbleEh>
 9b8:	80 2f       	mov	r24, r16
 9ba:	8f 70       	andi	r24, 0x0F	; 15
 9bc:	0e 94 95 04 	call	0x92a	; 0x92a <_ZN12OrangutanLCD10sendNibbleEh>
 9c0:	fb b8       	out	0x0b, r15	; 11
 9c2:	ea b8       	out	0x0a, r14	; 10
 9c4:	d5 b8       	out	0x05, r13	; 5
 9c6:	c4 b8       	out	0x04, r12	; 4
 9c8:	1f 91       	pop	r17
 9ca:	0f 91       	pop	r16
 9cc:	ff 90       	pop	r15
 9ce:	ef 90       	pop	r14
 9d0:	df 90       	pop	r13
 9d2:	cf 90       	pop	r12
 9d4:	08 95       	ret

000009d6 <_ZN12OrangutanLCD9send_dataEh>:
 9d6:	61 e0       	ldi	r22, 0x01	; 1
 9d8:	0e 94 bc 04 	call	0x978	; 0x978 <_ZN12OrangutanLCD4sendEhh>
 9dc:	08 95       	ret

000009de <_ZN12OrangutanLCD8send_cmdEh>:
 9de:	60 e0       	ldi	r22, 0x00	; 0
 9e0:	0e 94 bc 04 	call	0x978	; 0x978 <_ZN12OrangutanLCD4sendEhh>
 9e4:	08 95       	ret

000009e6 <_ZN12OrangutanLCD5init2Ev>:
 9e6:	0f 93       	push	r16
 9e8:	1f 93       	push	r17
 9ea:	8a b1       	in	r24, 0x0a	; 10
 9ec:	84 61       	ori	r24, 0x14	; 20
 9ee:	8a b9       	out	0x0a, r24	; 10
 9f0:	20 9a       	sbi	0x04, 0	; 4
 9f2:	80 e5       	ldi	r24, 0x50	; 80
 9f4:	93 ec       	ldi	r25, 0xC3	; 195
 9f6:	fc 01       	movw	r30, r24
 9f8:	31 97       	sbiw	r30, 0x01	; 1
 9fa:	f1 f7       	brne	.-4      	; 0x9f8 <_ZN12OrangutanLCD5init2Ev+0x12>
 9fc:	01 97       	sbiw	r24, 0x01	; 1
 9fe:	f1 f7       	brne	.-4      	; 0x9fc <_ZN12OrangutanLCD5init2Ev+0x16>
 a00:	80 e3       	ldi	r24, 0x30	; 48
 a02:	0e 94 ef 04 	call	0x9de	; 0x9de <_ZN12OrangutanLCD8send_cmdEh>
 a06:	88 ea       	ldi	r24, 0xA8	; 168
 a08:	91 e6       	ldi	r25, 0x61	; 97
 a0a:	01 97       	sbiw	r24, 0x01	; 1
 a0c:	f1 f7       	brne	.-4      	; 0xa0a <_ZN12OrangutanLCD5init2Ev+0x24>
 a0e:	80 e3       	ldi	r24, 0x30	; 48
 a10:	0e 94 ef 04 	call	0x9de	; 0x9de <_ZN12OrangutanLCD8send_cmdEh>
 a14:	08 e8       	ldi	r16, 0x88	; 136
 a16:	13 e1       	ldi	r17, 0x13	; 19
 a18:	c8 01       	movw	r24, r16
 a1a:	01 97       	sbiw	r24, 0x01	; 1
 a1c:	f1 f7       	brne	.-4      	; 0xa1a <_ZN12OrangutanLCD5init2Ev+0x34>
 a1e:	80 e3       	ldi	r24, 0x30	; 48
 a20:	0e 94 ef 04 	call	0x9de	; 0x9de <_ZN12OrangutanLCD8send_cmdEh>
 a24:	c8 01       	movw	r24, r16
 a26:	01 97       	sbiw	r24, 0x01	; 1
 a28:	f1 f7       	brne	.-4      	; 0xa26 <_ZN12OrangutanLCD5init2Ev+0x40>
 a2a:	80 e2       	ldi	r24, 0x20	; 32
 a2c:	0e 94 ef 04 	call	0x9de	; 0x9de <_ZN12OrangutanLCD8send_cmdEh>
 a30:	c8 01       	movw	r24, r16
 a32:	01 97       	sbiw	r24, 0x01	; 1
 a34:	f1 f7       	brne	.-4      	; 0xa32 <_ZN12OrangutanLCD5init2Ev+0x4c>
 a36:	88 e2       	ldi	r24, 0x28	; 40
 a38:	0e 94 ef 04 	call	0x9de	; 0x9de <_ZN12OrangutanLCD8send_cmdEh>
 a3c:	88 e0       	ldi	r24, 0x08	; 8
 a3e:	0e 94 ef 04 	call	0x9de	; 0x9de <_ZN12OrangutanLCD8send_cmdEh>
 a42:	81 e0       	ldi	r24, 0x01	; 1
 a44:	0e 94 ef 04 	call	0x9de	; 0x9de <_ZN12OrangutanLCD8send_cmdEh>
 a48:	86 e0       	ldi	r24, 0x06	; 6
 a4a:	0e 94 ef 04 	call	0x9de	; 0x9de <_ZN12OrangutanLCD8send_cmdEh>
 a4e:	8c e0       	ldi	r24, 0x0C	; 12
 a50:	0e 94 ef 04 	call	0x9de	; 0x9de <_ZN12OrangutanLCD8send_cmdEh>
 a54:	1f 91       	pop	r17
 a56:	0f 91       	pop	r16
 a58:	08 95       	ret

00000a5a <_ZN12OrangutanLCD4initEv>:
 a5a:	80 91 27 01 	lds	r24, 0x0127
 a5e:	88 23       	and	r24, r24
 a60:	29 f4       	brne	.+10     	; 0xa6c <_ZN12OrangutanLCD4initEv+0x12>
 a62:	81 e0       	ldi	r24, 0x01	; 1
 a64:	80 93 27 01 	sts	0x0127, r24
 a68:	0e 94 f3 04 	call	0x9e6	; 0x9e6 <_ZN12OrangutanLCD5init2Ev>
 a6c:	08 95       	ret

00000a6e <_ZN12OrangutanLCD5printEPKc>:
 a6e:	cf 93       	push	r28
 a70:	df 93       	push	r29
 a72:	ec 01       	movw	r28, r24
 a74:	03 c0       	rjmp	.+6      	; 0xa7c <_ZN12OrangutanLCD5printEPKc+0xe>
 a76:	21 96       	adiw	r28, 0x01	; 1
 a78:	0e 94 eb 04 	call	0x9d6	; 0x9d6 <_ZN12OrangutanLCD9send_dataEh>
 a7c:	88 81       	ld	r24, Y
 a7e:	88 23       	and	r24, r24
 a80:	d1 f7       	brne	.-12     	; 0xa76 <_ZN12OrangutanLCD5printEPKc+0x8>
 a82:	df 91       	pop	r29
 a84:	cf 91       	pop	r28
 a86:	08 95       	ret

00000a88 <print>:
 a88:	0e 94 37 05 	call	0xa6e	; 0xa6e <_ZN12OrangutanLCD5printEPKc>
 a8c:	08 95       	ret

00000a8e <_ZN13OrangutanLEDs4leftEh>:
 a8e:	51 9a       	sbi	0x0a, 1	; 10
 a90:	88 23       	and	r24, r24
 a92:	11 f0       	breq	.+4      	; 0xa98 <_ZN13OrangutanLEDs4leftEh+0xa>
 a94:	59 9a       	sbi	0x0b, 1	; 11
 a96:	08 95       	ret
 a98:	59 98       	cbi	0x0b, 1	; 11
 a9a:	08 95       	ret

00000a9c <_ZN13OrangutanLEDs3redEh>:
 a9c:	0e 94 47 05 	call	0xa8e	; 0xa8e <_ZN13OrangutanLEDs4leftEh>
 aa0:	08 95       	ret

00000aa2 <red_led>:
 aa2:	0e 94 4e 05 	call	0xa9c	; 0xa9c <_ZN13OrangutanLEDs3redEh>
 aa6:	08 95       	ret

00000aa8 <_ZN13OrangutanLEDs5rightEh>:
 aa8:	57 9a       	sbi	0x0a, 7	; 10
 aaa:	88 23       	and	r24, r24
 aac:	11 f0       	breq	.+4      	; 0xab2 <_ZN13OrangutanLEDs5rightEh+0xa>
 aae:	5f 9a       	sbi	0x0b, 7	; 11
 ab0:	08 95       	ret
 ab2:	5f 98       	cbi	0x0b, 7	; 11
 ab4:	08 95       	ret

00000ab6 <_ZN13OrangutanLEDs5greenEh>:
 ab6:	0e 94 54 05 	call	0xaa8	; 0xaa8 <_ZN13OrangutanLEDs5rightEh>
 aba:	08 95       	ret

00000abc <green_led>:
 abc:	0e 94 5b 05 	call	0xab6	; 0xab6 <_ZN13OrangutanLEDs5greenEh>
 ac0:	08 95       	ret

00000ac2 <_ZN14OrangutanDelay2msEj>:
 ac2:	ac 01       	movw	r20, r24
 ac4:	20 e0       	ldi	r18, 0x00	; 0
 ac6:	30 e0       	ldi	r19, 0x00	; 0
 ac8:	06 c0       	rjmp	.+12     	; 0xad6 <_ZN14OrangutanDelay2msEj+0x14>
 aca:	88 e8       	ldi	r24, 0x88	; 136
 acc:	93 e1       	ldi	r25, 0x13	; 19
 ace:	01 97       	sbiw	r24, 0x01	; 1
 ad0:	f1 f7       	brne	.-4      	; 0xace <_ZN14OrangutanDelay2msEj+0xc>
 ad2:	2f 5f       	subi	r18, 0xFF	; 255
 ad4:	3f 4f       	sbci	r19, 0xFF	; 255
 ad6:	24 17       	cp	r18, r20
 ad8:	35 07       	cpc	r19, r21
 ada:	b9 f7       	brne	.-18     	; 0xaca <_ZN14OrangutanDelay2msEj+0x8>
 adc:	08 95       	ret

00000ade <delay_ms>:
 ade:	0e 94 61 05 	call	0xac2	; 0xac2 <_ZN14OrangutanDelay2msEj>
 ae2:	08 95       	ret

00000ae4 <__mulsi3>:
 ae4:	62 9f       	mul	r22, r18
 ae6:	d0 01       	movw	r26, r0
 ae8:	73 9f       	mul	r23, r19
 aea:	f0 01       	movw	r30, r0
 aec:	82 9f       	mul	r24, r18
 aee:	e0 0d       	add	r30, r0
 af0:	f1 1d       	adc	r31, r1
 af2:	64 9f       	mul	r22, r20
 af4:	e0 0d       	add	r30, r0
 af6:	f1 1d       	adc	r31, r1
 af8:	92 9f       	mul	r25, r18
 afa:	f0 0d       	add	r31, r0
 afc:	83 9f       	mul	r24, r19
 afe:	f0 0d       	add	r31, r0
 b00:	74 9f       	mul	r23, r20
 b02:	f0 0d       	add	r31, r0
 b04:	65 9f       	mul	r22, r21
 b06:	f0 0d       	add	r31, r0
 b08:	99 27       	eor	r25, r25
 b0a:	72 9f       	mul	r23, r18
 b0c:	b0 0d       	add	r27, r0
 b0e:	e1 1d       	adc	r30, r1
 b10:	f9 1f       	adc	r31, r25
 b12:	63 9f       	mul	r22, r19
 b14:	b0 0d       	add	r27, r0
 b16:	e1 1d       	adc	r30, r1
 b18:	f9 1f       	adc	r31, r25
 b1a:	bd 01       	movw	r22, r26
 b1c:	cf 01       	movw	r24, r30
 b1e:	11 24       	eor	r1, r1
 b20:	08 95       	ret

00000b22 <__udivmodqi4>:
 b22:	99 1b       	sub	r25, r25
 b24:	79 e0       	ldi	r23, 0x09	; 9
 b26:	04 c0       	rjmp	.+8      	; 0xb30 <__udivmodqi4_ep>

00000b28 <__udivmodqi4_loop>:
 b28:	99 1f       	adc	r25, r25
 b2a:	96 17       	cp	r25, r22
 b2c:	08 f0       	brcs	.+2      	; 0xb30 <__udivmodqi4_ep>
 b2e:	96 1b       	sub	r25, r22

00000b30 <__udivmodqi4_ep>:
 b30:	88 1f       	adc	r24, r24
 b32:	7a 95       	dec	r23
 b34:	c9 f7       	brne	.-14     	; 0xb28 <__udivmodqi4_loop>
 b36:	80 95       	com	r24
 b38:	08 95       	ret

00000b3a <__udivmodhi4>:
 b3a:	aa 1b       	sub	r26, r26
 b3c:	bb 1b       	sub	r27, r27
 b3e:	51 e1       	ldi	r21, 0x11	; 17
 b40:	07 c0       	rjmp	.+14     	; 0xb50 <__udivmodhi4_ep>

00000b42 <__udivmodhi4_loop>:
 b42:	aa 1f       	adc	r26, r26
 b44:	bb 1f       	adc	r27, r27
 b46:	a6 17       	cp	r26, r22
 b48:	b7 07       	cpc	r27, r23
 b4a:	10 f0       	brcs	.+4      	; 0xb50 <__udivmodhi4_ep>
 b4c:	a6 1b       	sub	r26, r22
 b4e:	b7 0b       	sbc	r27, r23

00000b50 <__udivmodhi4_ep>:
 b50:	88 1f       	adc	r24, r24
 b52:	99 1f       	adc	r25, r25
 b54:	5a 95       	dec	r21
 b56:	a9 f7       	brne	.-22     	; 0xb42 <__udivmodhi4_loop>
 b58:	80 95       	com	r24
 b5a:	90 95       	com	r25
 b5c:	bc 01       	movw	r22, r24
 b5e:	cd 01       	movw	r24, r26
 b60:	08 95       	ret

00000b62 <__udivmodsi4>:
 b62:	a1 e2       	ldi	r26, 0x21	; 33
 b64:	1a 2e       	mov	r1, r26
 b66:	aa 1b       	sub	r26, r26
 b68:	bb 1b       	sub	r27, r27
 b6a:	fd 01       	movw	r30, r26
 b6c:	0d c0       	rjmp	.+26     	; 0xb88 <__udivmodsi4_ep>

00000b6e <__udivmodsi4_loop>:
 b6e:	aa 1f       	adc	r26, r26
 b70:	bb 1f       	adc	r27, r27
 b72:	ee 1f       	adc	r30, r30
 b74:	ff 1f       	adc	r31, r31
 b76:	a2 17       	cp	r26, r18
 b78:	b3 07       	cpc	r27, r19
 b7a:	e4 07       	cpc	r30, r20
 b7c:	f5 07       	cpc	r31, r21
 b7e:	20 f0       	brcs	.+8      	; 0xb88 <__udivmodsi4_ep>
 b80:	a2 1b       	sub	r26, r18
 b82:	b3 0b       	sbc	r27, r19
 b84:	e4 0b       	sbc	r30, r20
 b86:	f5 0b       	sbc	r31, r21

00000b88 <__udivmodsi4_ep>:
 b88:	66 1f       	adc	r22, r22
 b8a:	77 1f       	adc	r23, r23
 b8c:	88 1f       	adc	r24, r24
 b8e:	99 1f       	adc	r25, r25
 b90:	1a 94       	dec	r1
 b92:	69 f7       	brne	.-38     	; 0xb6e <__udivmodsi4_loop>
 b94:	60 95       	com	r22
 b96:	70 95       	com	r23
 b98:	80 95       	com	r24
 b9a:	90 95       	com	r25
 b9c:	9b 01       	movw	r18, r22
 b9e:	ac 01       	movw	r20, r24
 ba0:	bd 01       	movw	r22, r26
 ba2:	cf 01       	movw	r24, r30
 ba4:	08 95       	ret

00000ba6 <__divmodsi4>:
 ba6:	97 fb       	bst	r25, 7
 ba8:	09 2e       	mov	r0, r25
 baa:	05 26       	eor	r0, r21
 bac:	0e d0       	rcall	.+28     	; 0xbca <__divmodsi4_neg1>
 bae:	57 fd       	sbrc	r21, 7
 bb0:	04 d0       	rcall	.+8      	; 0xbba <__divmodsi4_neg2>
 bb2:	d7 df       	rcall	.-82     	; 0xb62 <__udivmodsi4>
 bb4:	0a d0       	rcall	.+20     	; 0xbca <__divmodsi4_neg1>
 bb6:	00 1c       	adc	r0, r0
 bb8:	38 f4       	brcc	.+14     	; 0xbc8 <__divmodsi4_exit>

00000bba <__divmodsi4_neg2>:
 bba:	50 95       	com	r21
 bbc:	40 95       	com	r20
 bbe:	30 95       	com	r19
 bc0:	21 95       	neg	r18
 bc2:	3f 4f       	sbci	r19, 0xFF	; 255
 bc4:	4f 4f       	sbci	r20, 0xFF	; 255
 bc6:	5f 4f       	sbci	r21, 0xFF	; 255

00000bc8 <__divmodsi4_exit>:
 bc8:	08 95       	ret

00000bca <__divmodsi4_neg1>:
 bca:	f6 f7       	brtc	.-4      	; 0xbc8 <__divmodsi4_exit>
 bcc:	90 95       	com	r25
 bce:	80 95       	com	r24
 bd0:	70 95       	com	r23
 bd2:	61 95       	neg	r22
 bd4:	7f 4f       	sbci	r23, 0xFF	; 255
 bd6:	8f 4f       	sbci	r24, 0xFF	; 255
 bd8:	9f 4f       	sbci	r25, 0xFF	; 255
 bda:	08 95       	ret

00000bdc <__prologue_saves__>:
 bdc:	2f 92       	push	r2
 bde:	3f 92       	push	r3
 be0:	4f 92       	push	r4
 be2:	5f 92       	push	r5
 be4:	6f 92       	push	r6
 be6:	7f 92       	push	r7
 be8:	8f 92       	push	r8
 bea:	9f 92       	push	r9
 bec:	af 92       	push	r10
 bee:	bf 92       	push	r11
 bf0:	cf 92       	push	r12
 bf2:	df 92       	push	r13
 bf4:	ef 92       	push	r14
 bf6:	ff 92       	push	r15
 bf8:	0f 93       	push	r16
 bfa:	1f 93       	push	r17
 bfc:	cf 93       	push	r28
 bfe:	df 93       	push	r29
 c00:	cd b7       	in	r28, 0x3d	; 61
 c02:	de b7       	in	r29, 0x3e	; 62
 c04:	ca 1b       	sub	r28, r26
 c06:	db 0b       	sbc	r29, r27
 c08:	0f b6       	in	r0, 0x3f	; 63
 c0a:	f8 94       	cli
 c0c:	de bf       	out	0x3e, r29	; 62
 c0e:	0f be       	out	0x3f, r0	; 63
 c10:	cd bf       	out	0x3d, r28	; 61
 c12:	09 94       	ijmp

00000c14 <__epilogue_restores__>:
 c14:	2a 88       	ldd	r2, Y+18	; 0x12
 c16:	39 88       	ldd	r3, Y+17	; 0x11
 c18:	48 88       	ldd	r4, Y+16	; 0x10
 c1a:	5f 84       	ldd	r5, Y+15	; 0x0f
 c1c:	6e 84       	ldd	r6, Y+14	; 0x0e
 c1e:	7d 84       	ldd	r7, Y+13	; 0x0d
 c20:	8c 84       	ldd	r8, Y+12	; 0x0c
 c22:	9b 84       	ldd	r9, Y+11	; 0x0b
 c24:	aa 84       	ldd	r10, Y+10	; 0x0a
 c26:	b9 84       	ldd	r11, Y+9	; 0x09
 c28:	c8 84       	ldd	r12, Y+8	; 0x08
 c2a:	df 80       	ldd	r13, Y+7	; 0x07
 c2c:	ee 80       	ldd	r14, Y+6	; 0x06
 c2e:	fd 80       	ldd	r15, Y+5	; 0x05
 c30:	0c 81       	ldd	r16, Y+4	; 0x04
 c32:	1b 81       	ldd	r17, Y+3	; 0x03
 c34:	aa 81       	ldd	r26, Y+2	; 0x02
 c36:	b9 81       	ldd	r27, Y+1	; 0x01
 c38:	ce 0f       	add	r28, r30
 c3a:	d1 1d       	adc	r29, r1
 c3c:	0f b6       	in	r0, 0x3f	; 63
 c3e:	f8 94       	cli
 c40:	de bf       	out	0x3e, r29	; 62
 c42:	0f be       	out	0x3f, r0	; 63
 c44:	cd bf       	out	0x3d, r28	; 61
 c46:	ed 01       	movw	r28, r26
 c48:	08 95       	ret

00000c4a <__tablejump2__>:
 c4a:	ee 0f       	add	r30, r30
 c4c:	ff 1f       	adc	r31, r31

00000c4e <__tablejump__>:
 c4e:	05 90       	lpm	r0, Z+
 c50:	f4 91       	lpm	r31, Z+
 c52:	e0 2d       	mov	r30, r0
 c54:	09 94       	ijmp

00000c56 <_exit>:
 c56:	f8 94       	cli

00000c58 <__stop_program>:
 c58:	ff cf       	rjmp	.-2      	; 0xc58 <__stop_program>
